target datalayout = "e-m:e-p270:32:32-p271:32:32-p272:64:64-i64:64-i128:128-f80:128-n8:16:32:64-S128"
target triple = "x86_64-pc-linux-gnu"

@.str = private unnamed_addr constant [16 x i8] c"/proc/self/stat\00", align 1

; Function Attrs: nounwind uwtable
define dso_local i32 @uv_resident_set_memory(ptr noundef %0) #0 {
  %2 = alloca i32, align 4
  %3 = alloca ptr, align 8
  %4 = alloca [1024 x i8], align 16
  %5 = alloca ptr, align 8
  %6 = alloca i64, align 8
  %7 = alloca i64, align 8
  %8 = alloca i32, align 4
  %9 = alloca i32, align 4
  %10 = alloca i32, align 4
  store ptr %0, ptr %3, align 8, !tbaa !29
  call void @llvm.lifetime.start.p0(i64 1024, ptr %4) #9
  call void @llvm.lifetime.start.p0(i64 8, ptr %5) #9
  call void @llvm.lifetime.start.p0(i64 8, ptr %6) #9
  call void @llvm.lifetime.start.p0(i64 8, ptr %7) #9
  call void @llvm.lifetime.start.p0(i64 4, ptr %8) #9
  call void @llvm.lifetime.start.p0(i64 4, ptr %9) #9
  br label %11

11:                                               ; preds = %20, %1
  %12 = call i32 (ptr, i32, ...) @open(ptr noundef @.str, i32 noundef 0)
  store i32 %12, ptr %8, align 4, !tbaa !24
  br label %13

13:                                               ; preds = %11
  %14 = load i32, ptr %8, align 4, !tbaa !24
  %15 = icmp eq i32 %14, -1
  br i1 %15, label %16, label %20

16:                                               ; preds = %13
  %17 = call ptr @__errno_location() #10
  %18 = load i32, ptr %17, align 4, !tbaa !24
  %19 = icmp eq i32 %18, 4
  br label %20

20:                                               ; preds = %16, %13
  %21 = phi i1 [ false, %13 ], [ %19, %16 ]
  br i1 %21, label %11, label %22, !llvm.loop !31

22:                                               ; preds = %20
  %23 = load i32, ptr %8, align 4, !tbaa !24
  %24 = icmp eq i32 %23, -1
  br i1 %24, label %25, label %29

25:                                               ; preds = %22
  %26 = call ptr @__errno_location() #10
  %27 = load i32, ptr %26, align 4, !tbaa !24
  %28 = sub nsw i32 0, %27
  store i32 %28, ptr %2, align 4
  store i32 1, ptr %10, align 4
  br label %108

29:                                               ; preds = %22
  br label %30

30:                                               ; preds = %41, %29
  %31 = load i32, ptr %8, align 4, !tbaa !24
  %32 = getelementptr inbounds [1024 x i8], ptr %4, i64 0, i64 0
  %33 = call i64 @read(i32 noundef %31, ptr noundef %32, i64 noundef 1023)
  store i64 %33, ptr %6, align 8, !tbaa !25
  br label %34

34:                                               ; preds = %30
  %35 = load i64, ptr %6, align 8, !tbaa !25
  %36 = icmp eq i64 %35, -1
  br i1 %36, label %37, label %41

37:                                               ; preds = %34
  %38 = call ptr @__errno_location() #10
  %39 = load i32, ptr %38, align 4, !tbaa !24
  %40 = icmp eq i32 %39, 4
  br label %41

41:                                               ; preds = %37, %34
  %42 = phi i1 [ false, %34 ], [ %40, %37 ]
  br i1 %42, label %30, label %43, !llvm.loop !33

43:                                               ; preds = %41
  %44 = load i32, ptr %8, align 4, !tbaa !24
  %45 = call i32 @uv__close(i32 noundef %44)
  %46 = load i64, ptr %6, align 8, !tbaa !25
  %47 = icmp eq i64 %46, -1
  br i1 %47, label %48, label %52

48:                                               ; preds = %43
  %49 = call ptr @__errno_location() #10
  %50 = load i32, ptr %49, align 4, !tbaa !24
  %51 = sub nsw i32 0, %50
  store i32 %51, ptr %2, align 4
  store i32 1, ptr %10, align 4
  br label %108

52:                                               ; preds = %43
  %53 = load i64, ptr %6, align 8, !tbaa !25
  %54 = getelementptr inbounds [1024 x i8], ptr %4, i64 0, i64 %53
  store i8 0, ptr %54, align 1, !tbaa !34
  %55 = getelementptr inbounds [1024 x i8], ptr %4, i64 0, i64 0
  %56 = call ptr @strchr(ptr noundef %55, i32 noundef 32) #11
  store ptr %56, ptr %5, align 8, !tbaa !35
  %57 = load ptr, ptr %5, align 8, !tbaa !35
  %58 = icmp eq ptr %57, null
  br i1 %58, label %59, label %60

59:                                               ; preds = %52
  br label %107

60:                                               ; preds = %52
  %61 = load ptr, ptr %5, align 8, !tbaa !35
  %62 = getelementptr inbounds i8, ptr %61, i64 1
  store ptr %62, ptr %5, align 8, !tbaa !35
  %63 = load ptr, ptr %5, align 8, !tbaa !35
  %64 = load i8, ptr %63, align 1, !tbaa !34
  %65 = sext i8 %64 to i32
  %66 = icmp ne i32 %65, 40
  br i1 %66, label %67, label %68

67:                                               ; preds = %60
  br label %107

68:                                               ; preds = %60
  %69 = load ptr, ptr %5, align 8, !tbaa !35
  %70 = call ptr @strchr(ptr noundef %69, i32 noundef 41) #11
  store ptr %70, ptr %5, align 8, !tbaa !35
  %71 = load ptr, ptr %5, align 8, !tbaa !35
  %72 = icmp eq ptr %71, null
  br i1 %72, label %73, label %74

73:                                               ; preds = %68
  br label %107

74:                                               ; preds = %68
  store i32 1, ptr %9, align 4, !tbaa !24
  br label %75

75:                                               ; preds = %86, %74
  %76 = load i32, ptr %9, align 4, !tbaa !24
  %77 = icmp sle i32 %76, 22
  br i1 %77, label %78, label %89

78:                                               ; preds = %75
  %79 = load ptr, ptr %5, align 8, !tbaa !35
  %80 = getelementptr inbounds i8, ptr %79, i64 1
  %81 = call ptr @strchr(ptr noundef %80, i32 noundef 32) #11
  store ptr %81, ptr %5, align 8, !tbaa !35
  %82 = load ptr, ptr %5, align 8, !tbaa !35
  %83 = icmp eq ptr %82, null
  br i1 %83, label %84, label %85

84:                                               ; preds = %78
  br label %107

85:                                               ; preds = %78
  br label %86

86:                                               ; preds = %85
  %87 = load i32, ptr %9, align 4, !tbaa !24
  %88 = add nsw i32 %87, 1
  store i32 %88, ptr %9, align 4, !tbaa !24
  br label %75, !llvm.loop !37

89:                                               ; preds = %75
  %90 = call ptr @__errno_location() #10
  store i32 0, ptr %90, align 4, !tbaa !24
  %91 = load ptr, ptr %5, align 8, !tbaa !35
  %92 = call i64 @strtol(ptr noundef %91, ptr noundef null, i32 noundef 10) #9
  store i64 %92, ptr %7, align 8, !tbaa !25
  %93 = call ptr @__errno_location() #10
  %94 = load i32, ptr %93, align 4, !tbaa !24
  %95 = icmp ne i32 %94, 0
  br i1 %95, label %96, label %97

96:                                               ; preds = %89
  br label %107

97:                                               ; preds = %89
  %98 = load i64, ptr %7, align 8, !tbaa !25
  %99 = icmp slt i64 %98, 0
  br i1 %99, label %100, label %101

100:                                              ; preds = %97
  br label %107

101:                                              ; preds = %97
  %102 = load i64, ptr %7, align 8, !tbaa !25
  %103 = call i32 @getpagesize() #10
  %104 = sext i32 %103 to i64
  %105 = mul nsw i64 %102, %104
  %106 = load ptr, ptr %3, align 8, !tbaa !29
  store i64 %105, ptr %106, align 8, !tbaa !25
  store i32 0, ptr %2, align 4
  store i32 1, ptr %10, align 4
  br label %108

107:                                              ; preds = %100, %96, %84, %73, %67, %59
  store i32 -22, ptr %2, align 4
  store i32 1, ptr %10, align 4
  br label %108

108:                                              ; preds = %107, %101, %48, %25
  call void @llvm.lifetime.end.p0(i64 4, ptr %9) #9
  call void @llvm.lifetime.end.p0(i64 4, ptr %8) #9
  call void @llvm.lifetime.end.p0(i64 8, ptr %7) #9
  call void @llvm.lifetime.end.p0(i64 8, ptr %6) #9
  call void @llvm.lifetime.end.p0(i64 8, ptr %5) #9
  call void @llvm.lifetime.end.p0(i64 1024, ptr %4) #9
  %109 = load i32, ptr %2, align 4
  ret i32 %109
}