; Function Attrs: nounwind uwtable
define dso_local range(i32 -2147483647, -2147483648) i32 @uv_resident_set_memory(ptr noundef writeonly captures(none) %0) local_unnamed_addr #0 {
  %2 = alloca [1024 x i8], align 16
  call void @llvm.lifetime.start.p0(i64 1024, ptr nonnull %2) #13
  br label %3

3:                                                ; preds = %6, %1
  %4 = tail call i32 (ptr, i32, ...) @open(ptr noundef nonnull @.str, i32 noundef 0) #13
  %5 = icmp eq i32 %4, -1
  br i1 %5, label %6, label %.critedge30

6:                                                ; preds = %3
  %7 = tail call ptr @__errno_location() #14
  %8 = load i32, ptr %7, align 4, !tbaa !26
  %9 = icmp eq i32 %8, 4
  br i1 %9, label %3, label %.critedge, !llvm.loop !27

.critedge:                                        ; preds = %6
  %10 = sub nsw i32 0, %8
  br label %.loopexit

.critedge30:                                      ; preds = %3, %13
  %11 = call i64 @read(i32 noundef %4, ptr noundef nonnull %2, i64 noundef 1023) #13
  %12 = icmp eq i64 %11, -1
  br i1 %12, label %13, label %21

13:                                               ; preds = %.critedge30
  %14 = tail call ptr @__errno_location() #14
  %15 = load i32, ptr %14, align 4, !tbaa !26
  %16 = icmp eq i32 %15, 4
  br i1 %16, label %.critedge30, label %17, !llvm.loop !29

17:                                               ; preds = %13
  %18 = tail call i32 @uv__close(i32 noundef %4) #13
  %19 = load i32, ptr %14, align 4, !tbaa !26
  %20 = sub nsw i32 0, %19
  br label %.loopexit

21:                                               ; preds = %.critedge30
  %22 = tail call i32 @uv__close(i32 noundef %4) #13
  %23 = getelementptr inbounds [1024 x i8], ptr %2, i64 0, i64 %11
  store i8 0, ptr %23, align 1, !tbaa !30
  %24 = call ptr @strchr(ptr noundef nonnull dereferenceable(1) %2, i32 noundef 32) #15
  %25 = icmp eq ptr %24, null
  br i1 %25, label %.loopexit, label %26

26:                                               ; preds = %21
  %27 = getelementptr inbounds nuw i8, ptr %24, i64 1
  %28 = load i8, ptr %27, align 1, !tbaa !30
  %.not = icmp eq i8 %28, 40
  br i1 %.not, label %29, label %.loopexit

29:                                               ; preds = %26
  %30 = call ptr @strchr(ptr noundef nonnull dereferenceable(1) %27, i32 noundef 41) #15
  %31 = icmp eq ptr %30, null
  br i1 %31, label %.loopexit, label %.preheader

32:                                               ; preds = %.preheader
  %33 = add nuw nsw i32 %.039, 1
  %exitcond.not = icmp eq i32 %33, 23
  br i1 %exitcond.not, label %37, label %.preheader, !llvm.loop !31

.preheader:                                       ; preds = %29, %32
  %.039 = phi i32 [ %33, %32 ], [ 1, %29 ]
  %.02438 = phi ptr [ %35, %32 ], [ %30, %29 ]
  %34 = getelementptr inbounds nuw i8, ptr %.02438, i64 1
  %35 = call ptr @strchr(ptr noundef nonnull dereferenceable(1) %34, i32 noundef 32) #15
  %36 = icmp eq ptr %35, null
  br i1 %36, label %.loopexit, label %32

37:                                               ; preds = %32
  %38 = tail call ptr @__errno_location() #14
  store i32 0, ptr %38, align 4, !tbaa !26
  %39 = call i64 @strtol(ptr noundef nonnull captures(none) %35, ptr noundef null, i32 noundef 10) #13
  %40 = load i32, ptr %38, align 4, !tbaa !26
  %41 = icmp ne i32 %40, 0
  %42 = icmp slt i64 %39, 0
  %or.cond = select i1 %41, i1 true, i1 %42
  br i1 %or.cond, label %.loopexit, label %43

43:                                               ; preds = %37
  %44 = tail call i32 @getpagesize() #14
  %45 = sext i32 %44 to i64
  %46 = mul nsw i64 %39, %45
  store i64 %46, ptr %0, align 8, !tbaa !22
  br label %.loopexit

.loopexit:                                        ; preds = %.preheader, %21, %26, %29, %37, %43, %17, %.critedge
  %.023 = phi i32 [ %10, %.critedge ], [ %20, %17 ], [ 0, %43 ], [ -22, %37 ], [ -22, %29 ], [ -22, %26 ], [ -22, %21 ], [ -22, %.preheader ]
  call void @llvm.lifetime.end.p0(i64 1024, ptr nonnull %2) #13
  ret i32 %.023
}